target datalayout = "e-m:e-p270:32:32-p271:32:32-p272:64:64-i64:64-i128:128-f80:128-n8:16:32:64-S128"
target triple = "x86_64-pc-linux-gnu"

%struct.Llb_Mtr_t_ = type { i32, i32, i32, i32, ptr, ptr, ptr, ptr, ptr, ptr, ptr }

@.str.1 = private unnamed_addr constant [44 x i8] c"Llb_MtrUseSelectedColumn() Internal error!\0A\00", align 1

; Function Attrs: nounwind uwtable
define void @Llb_MtrUseSelectedColumn(ptr noundef %0, i32 noundef %1) #0 {
  %3 = alloca ptr, align 8
  %4 = alloca i32, align 4
  %5 = alloca i32, align 4
  store ptr %0, ptr %3, align 8, !tbaa !3
  store i32 %1, ptr %4, align 4, !tbaa !8
  call void @llvm.lifetime.start.p0(i64 4, ptr %5) #7
  store i32 0, ptr %5, align 4, !tbaa !8
  br label %6

6:                                                ; preds = %108, %2
  %7 = load i32, ptr %5, align 4, !tbaa !8
  %8 = load ptr, ptr %3, align 8, !tbaa !3
  %9 = getelementptr inbounds nuw %struct.Llb_Mtr_t_, ptr %8, i32 0, i32 2
  %10 = load i32, ptr %9, align 8, !tbaa !22
  %11 = icmp slt i32 %7, %10
  br i1 %11, label %12, label %111

12:                                               ; preds = %6
  %13 = load ptr, ptr %3, align 8, !tbaa !3
  %14 = getelementptr inbounds nuw %struct.Llb_Mtr_t_, ptr %13, i32 0, i32 7
  %15 = load ptr, ptr %14, align 8, !tbaa !19
  %16 = load i32, ptr %4, align 4, !tbaa !8
  %17 = sext i32 %16 to i64
  %18 = getelementptr inbounds ptr, ptr %15, i64 %17
  %19 = load ptr, ptr %18, align 8, !tbaa !20
  %20 = load i32, ptr %5, align 4, !tbaa !8
  %21 = sext i32 %20 to i64
  %22 = getelementptr inbounds i8, ptr %19, i64 %21
  %23 = load i8, ptr %22, align 1, !tbaa !26
  %24 = sext i8 %23 to i32
  %25 = icmp eq i32 %24, 0
  br i1 %25, label %26, label %27

26:                                               ; preds = %12
  br label %108

27:                                               ; preds = %12
  %28 = load ptr, ptr %3, align 8, !tbaa !3
  %29 = getelementptr inbounds nuw %struct.Llb_Mtr_t_, ptr %28, i32 0, i32 9
  %30 = load ptr, ptr %29, align 8, !tbaa !25
  %31 = load i32, ptr %5, align 4, !tbaa !8
  %32 = sext i32 %31 to i64
  %33 = getelementptr inbounds i8, ptr %30, i64 %32
  %34 = load i8, ptr %33, align 1, !tbaa !26
  %35 = sext i8 %34 to i32
  %36 = icmp eq i32 %35, 1
  br i1 %36, label %37, label %59

37:                                               ; preds = %27
  %38 = load ptr, ptr %3, align 8, !tbaa !3
  %39 = getelementptr inbounds nuw %struct.Llb_Mtr_t_, ptr %38, i32 0, i32 10
  %40 = load ptr, ptr %39, align 8, !tbaa !27
  %41 = load i32, ptr %5, align 4, !tbaa !8
  %42 = sext i32 %41 to i64
  %43 = getelementptr inbounds i32, ptr %40, i64 %42
  %44 = load i32, ptr %43, align 4, !tbaa !8
  %45 = icmp eq i32 %44, 1
  br i1 %45, label %46, label %59

46:                                               ; preds = %37
  %47 = load ptr, ptr %3, align 8, !tbaa !3
  %48 = getelementptr inbounds nuw %struct.Llb_Mtr_t_, ptr %47, i32 0, i32 9
  %49 = load ptr, ptr %48, align 8, !tbaa !25
  %50 = load i32, ptr %5, align 4, !tbaa !8
  %51 = sext i32 %50 to i64
  %52 = getelementptr inbounds i8, ptr %49, i64 %51
  store i8 0, ptr %52, align 1, !tbaa !26
  %53 = load ptr, ptr %3, align 8, !tbaa !3
  %54 = getelementptr inbounds nuw %struct.Llb_Mtr_t_, ptr %53, i32 0, i32 10
  %55 = load ptr, ptr %54, align 8, !tbaa !27
  %56 = load i32, ptr %5, align 4, !tbaa !8
  %57 = sext i32 %56 to i64
  %58 = getelementptr inbounds i32, ptr %55, i64 %57
  store i32 0, ptr %58, align 4, !tbaa !8
  br label %108

59:                                               ; preds = %37, %27
  %60 = load ptr, ptr %3, align 8, !tbaa !3
  %61 = getelementptr inbounds nuw %struct.Llb_Mtr_t_, ptr %60, i32 0, i32 9
  %62 = load ptr, ptr %61, align 8, !tbaa !25
  %63 = load i32, ptr %5, align 4, !tbaa !8
  %64 = sext i32 %63 to i64
  %65 = getelementptr inbounds i8, ptr %62, i64 %64
  %66 = load i8, ptr %65, align 1, !tbaa !26
  %67 = sext i8 %66 to i32
  %68 = icmp eq i32 %67, 0
  br i1 %68, label %69, label %89

69:                                               ; preds = %59
  %70 = load ptr, ptr %3, align 8, !tbaa !3
  %71 = getelementptr inbounds nuw %struct.Llb_Mtr_t_, ptr %70, i32 0, i32 9
  %72 = load ptr, ptr %71, align 8, !tbaa !25
  %73 = load i32, ptr %5, align 4, !tbaa !8
  %74 = sext i32 %73 to i64
  %75 = getelementptr inbounds i8, ptr %72, i64 %74
  store i8 1, ptr %75, align 1, !tbaa !26
  %76 = load ptr, ptr %3, align 8, !tbaa !3
  %77 = getelementptr inbounds nuw %struct.Llb_Mtr_t_, ptr %76, i32 0, i32 6
  %78 = load ptr, ptr %77, align 8, !tbaa !24
  %79 = load i32, ptr %5, align 4, !tbaa !8
  %80 = sext i32 %79 to i64
  %81 = getelementptr inbounds i32, ptr %78, i64 %80
  %82 = load i32, ptr %81, align 4, !tbaa !8
  %83 = load ptr, ptr %3, align 8, !tbaa !3
  %84 = getelementptr inbounds nuw %struct.Llb_Mtr_t_, ptr %83, i32 0, i32 10
  %85 = load ptr, ptr %84, align 8, !tbaa !27
  %86 = load i32, ptr %5, align 4, !tbaa !8
  %87 = sext i32 %86 to i64
  %88 = getelementptr inbounds i32, ptr %85, i64 %87
  store i32 %82, ptr %88, align 4, !tbaa !8
  br label %89

89:                                               ; preds = %69, %59
  %90 = load ptr, ptr %3, align 8, !tbaa !3
  %91 = getelementptr inbounds nuw %struct.Llb_Mtr_t_, ptr %90, i32 0, i32 10
  %92 = load ptr, ptr %91, align 8, !tbaa !27
  %93 = load i32, ptr %5, align 4, !tbaa !8
  %94 = sext i32 %93 to i64
  %95 = getelementptr inbounds i32, ptr %92, i64 %94
  %96 = load i32, ptr %95, align 4, !tbaa !8
  %97 = add nsw i32 %96, -1
  store i32 %97, ptr %95, align 4, !tbaa !8
  %98 = load ptr, ptr %3, align 8, !tbaa !3
  %99 = getelementptr inbounds nuw %struct.Llb_Mtr_t_, ptr %98, i32 0, i32 10
  %100 = load ptr, ptr %99, align 8, !tbaa !27
  %101 = load i32, ptr %5, align 4, !tbaa !8
  %102 = sext i32 %101 to i64
  %103 = getelementptr inbounds i32, ptr %100, i64 %102
  %104 = load i32, ptr %103, align 4, !tbaa !8
  %105 = icmp slt i32 %104, 0
  br i1 %105, label %106, label %107

106:                                              ; preds = %89
  call void (i32, ptr, ...) @Abc_Print(i32 noundef -1, ptr noundef @.str.1)
  br label %107

107:                                              ; preds = %106, %89
  br label %108

108:                                              ; preds = %107, %46, %26
  %109 = load i32, ptr %5, align 4, !tbaa !8
  %110 = add nsw i32 %109, 1
  store i32 %110, ptr %5, align 4, !tbaa !8
  br label %6, !llvm.loop !37

111:                                              ; preds = %6
  call void @llvm.lifetime.end.p0(i64 4, ptr %5) #7
  ret void
}