; Function Attrs: nounwind uwtable
define void @Llb_MtrUseSelectedColumn(ptr noundef readonly captures(none) %0, i32 noundef %1) local_unnamed_addr #2 {
  %3 = getelementptr inbounds nuw i8, ptr %0, i64 8
  %4 = load i32, ptr %3, align 8, !tbaa !20
  %5 = icmp sgt i32 %4, 0
  br i1 %5, label %.lr.ph, label %._crit_edge

.lr.ph:                                           ; preds = %2
  %6 = getelementptr inbounds nuw i8, ptr %0, i64 40
  %7 = sext i32 %1 to i64
  %8 = getelementptr inbounds nuw i8, ptr %0, i64 56
  %9 = getelementptr inbounds nuw i8, ptr %0, i64 32
  %10 = getelementptr inbounds nuw i8, ptr %0, i64 64
  br label %11

11:                                               ; preds = %.lr.ph, %42
  %indvars.iv = phi i64 [ 0, %.lr.ph ], [ %indvars.iv.next, %42 ]
  %12 = load ptr, ptr %6, align 8, !tbaa !16
  %13 = getelementptr inbounds ptr, ptr %12, i64 %7
  %14 = load ptr, ptr %13, align 8, !tbaa !17
  %15 = getelementptr inbounds nuw i8, ptr %14, i64 %indvars.iv
  %16 = load i8, ptr %15, align 1, !tbaa !24
  %17 = icmp eq i8 %16, 0
  br i1 %17, label %42, label %18

18:                                               ; preds = %11
  %19 = load ptr, ptr %8, align 8, !tbaa !23
  %20 = getelementptr inbounds nuw i8, ptr %19, i64 %indvars.iv
  %21 = load i8, ptr %20, align 1, !tbaa !24
  switch i8 %21, label %..thread_crit_edge [
    i8 1, label %22
    i8 0, label %30
  ]

..thread_crit_edge:                               ; preds = %18
  %.pre = load ptr, ptr %10, align 8, !tbaa !25
  %.phi.trans.insert = getelementptr inbounds nuw i32, ptr %.pre, i64 %indvars.iv
  %.pre27 = load i32, ptr %.phi.trans.insert, align 4, !tbaa !19
  br label %.thread

22:                                               ; preds = %18
  %23 = load ptr, ptr %10, align 8, !tbaa !25
  %24 = getelementptr inbounds nuw i32, ptr %23, i64 %indvars.iv
  %25 = load i32, ptr %24, align 4, !tbaa !19
  %26 = icmp eq i32 %25, 1
  br i1 %26, label %27, label %.thread

27:                                               ; preds = %22
  store i8 0, ptr %20, align 1, !tbaa !24
  %28 = load ptr, ptr %10, align 8, !tbaa !25
  %29 = getelementptr inbounds nuw i32, ptr %28, i64 %indvars.iv
  store i32 0, ptr %29, align 4, !tbaa !19
  br label %42

30:                                               ; preds = %18
  store i8 1, ptr %20, align 1, !tbaa !24
  %31 = load ptr, ptr %9, align 8, !tbaa !22
  %32 = getelementptr inbounds nuw i32, ptr %31, i64 %indvars.iv
  %33 = load i32, ptr %32, align 4, !tbaa !19
  %34 = load ptr, ptr %10, align 8, !tbaa !25
  %35 = getelementptr inbounds nuw i32, ptr %34, i64 %indvars.iv
  store i32 %33, ptr %35, align 4, !tbaa !19
  br label %.thread

.thread:                                          ; preds = %..thread_crit_edge, %22, %30
  %36 = phi i32 [ %.pre27, %..thread_crit_edge ], [ %25, %22 ], [ %33, %30 ]
  %37 = phi ptr [ %.pre, %..thread_crit_edge ], [ %23, %22 ], [ %34, %30 ]
  %38 = getelementptr inbounds nuw i32, ptr %37, i64 %indvars.iv
  %39 = add nsw i32 %36, -1
  store i32 %39, ptr %38, align 4, !tbaa !19
  %40 = icmp slt i32 %36, 1
  br i1 %40, label %41, label %42

41:                                               ; preds = %.thread
  tail call void (i32, ptr, ...) @Abc_Print(i32 poison, ptr noundef nonnull @.str.1)
  br label %42

42:                                               ; preds = %.thread, %41, %11, %27
  %indvars.iv.next = add nuw nsw i64 %indvars.iv, 1
  %43 = load i32, ptr %3, align 8, !tbaa !20
  %44 = sext i32 %43 to i64
  %45 = icmp slt i64 %indvars.iv.next, %44
  br i1 %45, label %11, label %._crit_edge, !llvm.loop !38

._crit_edge:                                      ; preds = %42, %2
  ret void
}